target datalayout = "e-m:e-p270:32:32-p271:32:32-p272:64:64-i64:64-i128:128-f80:128-n8:16:32:64-S128"
target triple = "x86_64-pc-linux-gnu"

@.str.2 = private unnamed_addr constant [26 x i8] c"fcntl(F_SETFD) failed: %m\00", align 1

; Function Attrs: nounwind uwtable
define dso_local void @fd_set_close_on_exec(i32 noundef %0) #0 {
  %2 = alloca i32, align 4
  store i32 %0, ptr %2, align 4
  %3 = load i32, ptr %2, align 4
  %4 = call i32 (i32, i32, ...) @fcntl(i32 noundef %3, i32 noundef 2, i32 noundef 1)
  %5 = icmp slt i32 %4, 0
  br i1 %5, label %6, label %8

6:                                                ; preds = %1
  %7 = call i32 (ptr, ...) @error(ptr noundef @.str.2)
  br label %8

8:                                                ; preds = %6, %1
  ret void
}